; Function Attrs: mustprogress uwtable
define internal void @_ZNSt17_Function_handlerIFvP9AstVarRefP8AstIfaceEZN7V3Sched12_GLOBAL__N_116VirtIfaceVisitor27unsupportedWriteToVirtIfaceEP7AstNodePKcEUlS1_S3_E_E9_M_invokeERKSt9_Any_dataOS1_OS3_(ptr noundef nonnull readonly align 8 captures(none) dereferenceable(16) %0, ptr noundef nonnull readonly align 8 captures(none) dereferenceable(8) %1, ptr nonnull readnone align 8 captures(none) %2) #3 align 2 {
  %.val = load ptr, ptr %1, align 8, !tbaa !233
  %4 = tail call noundef nonnull align 8 dereferenceable(112) ptr @_ZN7V3Error11v3errorPrepB5cxx11E11V3ErrorCode(i8 19)
  %5 = tail call noundef nonnull align 8 dereferenceable(112) ptr @_ZN7V3Error10v3errorStrB5cxx11Ev()
  %6 = tail call noundef nonnull align 8 dereferenceable(8) ptr @_ZSt16__ostream_insertIcSt11char_traitsIcEERSt13basic_ostreamIT_T0_ES6_PKS3_l(ptr noundef nonnull align 8 dereferenceable(8) %5, ptr noundef nonnull @.str.25, i64 noundef 43)
  %7 = load ptr, ptr %0, align 8, !tbaa !236
  %.not.i.i.i.i = icmp eq ptr %7, null
  br i1 %.not.i.i.i.i, label %8, label %16

8:                                                ; preds = %3
  %9 = load ptr, ptr %5, align 8, !tbaa !74
  %10 = getelementptr i8, ptr %9, i64 -24
  %11 = load i64, ptr %10, align 8
  %12 = getelementptr inbounds i8, ptr %5, i64 %11
  %13 = getelementptr inbounds nuw i8, ptr %12, i64 32
  %14 = load i32, ptr %13, align 8, !tbaa !238
  %15 = or i32 %14, 1
  tail call void @_ZNSt9basic_iosIcSt11char_traitsIcEE5clearESt12_Ios_Iostate(ptr noundef nonnull align 8 dereferenceable(264) %12, i32 noundef %15)
  br label %_ZSt10__invoke_rIvRZN7V3Sched12_GLOBAL__N_116VirtIfaceVisitor27unsupportedWriteToVirtIfaceEP7AstNodePKcEUlP9AstVarRefP8AstIfaceE_JS8_SA_EENSt9enable_ifIX16is_invocable_r_vIT_T0_DpT1_EESE_E4typeEOSF_DpOSG_.exit

16:                                               ; preds = %3
  %17 = tail call noundef i64 @strlen(ptr noundef nonnull dereferenceable(1) %7) #25
  %18 = tail call noundef nonnull align 8 dereferenceable(8) ptr @_ZSt16__ostream_insertIcSt11char_traitsIcEERSt13basic_ostreamIT_T0_ES6_PKS3_l(ptr noundef nonnull align 8 dereferenceable(8) %5, ptr noundef nonnull %7, i64 noundef %17)
  br label %_ZSt10__invoke_rIvRZN7V3Sched12_GLOBAL__N_116VirtIfaceVisitor27unsupportedWriteToVirtIfaceEP7AstNodePKcEUlP9AstVarRefP8AstIfaceE_JS8_SA_EENSt9enable_ifIX16is_invocable_r_vIT_T0_DpT1_EESE_E4typeEOSF_DpOSG_.exit

_ZSt10__invoke_rIvRZN7V3Sched12_GLOBAL__N_116VirtIfaceVisitor27unsupportedWriteToVirtIfaceEP7AstNodePKcEUlP9AstVarRefP8AstIfaceE_JS8_SA_EENSt9enable_ifIX16is_invocable_r_vIT_T0_DpT1_EESE_E4typeEOSF_DpOSG_.exit: ; preds = %8, %16
  tail call void @_ZNK7AstNode10v3errorEndERNSt7__cxx1119basic_ostringstreamIcSt11char_traitsIcESaIcEEE(ptr noundef nonnull align 8 dereferenceable(152) %.val, ptr noundef nonnull align 8 dereferenceable(112) %5)
  ret void
}